target datalayout = "e-m:e-p270:32:32-p271:32:32-p272:64:64-i64:64-i128:128-f80:128-n8:16:32:64-S128"
target triple = "x86_64-pc-linux-gnu"

%struct.AvifInfoInternalForward = type { ptr, i64 }

; Function Attrs: nounwind uwtable
define hidden i32 @AvifInfoIdentify(ptr noundef %0, i64 noundef %1) #0 {
  %3 = alloca ptr, align 8
  %4 = alloca i64, align 8
  %5 = alloca %struct.AvifInfoInternalForward, align 8
  store ptr %0, ptr %3, align 8
  store i64 %1, ptr %4, align 8
  %6 = load ptr, ptr %3, align 8
  %7 = getelementptr inbounds %struct.AvifInfoInternalForward, ptr %5, i32 0, i32 0
  store ptr %6, ptr %7, align 8
  %8 = load i64, ptr %4, align 8
  %9 = getelementptr inbounds %struct.AvifInfoInternalForward, ptr %5, i32 0, i32 1
  store i64 %8, ptr %9, align 8
  %10 = load ptr, ptr %3, align 8
  %11 = icmp eq ptr %10, null
  %12 = select i1 %11, ptr null, ptr @AvifInfoInternalForwardRead
  %13 = call i32 @AvifInfoIdentifyStream(ptr noundef %5, ptr noundef %12, ptr noundef @AvifInfoInternalForwardSkip)
  ret i32 %13
}