; Function Attrs: nounwind uwtable
define hidden noundef i32 @AvifInfoIdentify(ptr noundef %0, i64 noundef %1) local_unnamed_addr #0 {
  %3 = alloca %struct.AvifInfoInternalForward, align 8
  store ptr %0, ptr %3, align 8
  %4 = getelementptr inbounds i8, ptr %3, i64 8
  store i64 %1, ptr %4, align 8
  %5 = icmp eq ptr %0, null
  %6 = select i1 %5, ptr null, ptr @AvifInfoInternalForwardRead
  %7 = call i32 @AvifInfoIdentifyStream(ptr noundef nonnull %3, ptr noundef %6, ptr noundef nonnull @AvifInfoInternalForwardSkip)
  ret i32 %7
}